target datalayout = "e-m:e-p270:32:32-p271:32:32-p272:64:64-i64:64-i128:128-f80:128-n8:16:32:64-S128"
target triple = "x86_64-pc-linux-gnu"

@.str.229 = private unnamed_addr constant [12 x i8] c"zipfile_cds\00", align 1

; Function Attrs: nounwind uwtable
define internal i32 @zipfileFindFunction(ptr noundef %0, i32 noundef %1, ptr noundef %2, ptr noundef %3, ptr noundef %4) #0 {
  %6 = alloca i32, align 4
  %7 = alloca ptr, align 8
  %8 = alloca i32, align 4
  %9 = alloca ptr, align 8
  %10 = alloca ptr, align 8
  %11 = alloca ptr, align 8
  store ptr %0, ptr %7, align 8, !tbaa !612
  store i32 %1, ptr %8, align 4, !tbaa !3
  store ptr %2, ptr %9, align 8, !tbaa !36
  store ptr %3, ptr %10, align 8, !tbaa !53
  store ptr %4, ptr %11, align 8, !tbaa !53
  %12 = load ptr, ptr %9, align 8, !tbaa !36
  %13 = call i32 @sqlite3_stricmp(ptr noundef @.str.229, ptr noundef %12)
  %14 = icmp eq i32 %13, 0
  br i1 %14, label %15, label %19

15:                                               ; preds = %5
  %16 = load ptr, ptr %10, align 8, !tbaa !53
  store ptr @zipfileFunctionCds, ptr %16, align 8, !tbaa !53
  %17 = load ptr, ptr %7, align 8, !tbaa !612
  %18 = load ptr, ptr %11, align 8, !tbaa !53
  store ptr %17, ptr %18, align 8, !tbaa !53
  store i32 1, ptr %6, align 4
  br label %20

19:                                               ; preds = %5
  store i32 0, ptr %6, align 4
  br label %20

20:                                               ; preds = %19, %15
  %21 = load i32, ptr %6, align 4
  ret i32 %21
}