; Function Attrs: nounwind uwtable
define internal range(i32 0, 2) i32 @zipfileFindFunction(ptr noundef %0, i32 %1, ptr noundef %2, ptr noundef writeonly captures(none) %3, ptr noundef writeonly captures(none) %4) #2 {
  %6 = tail call i32 @sqlite3_stricmp(ptr noundef nonnull @.str.229, ptr noundef %2) #43
  %7 = icmp eq i32 %6, 0
  br i1 %7, label %8, label %9

8:                                                ; preds = %5
  store ptr @zipfileFunctionCds, ptr %3, align 8, !tbaa !388
  store ptr %0, ptr %4, align 8, !tbaa !388
  br label %9

9:                                                ; preds = %5, %8
  %.0 = phi i32 [ 1, %8 ], [ 0, %5 ]
  ret i32 %.0
}